target datalayout = "e-m:e-p270:32:32-p271:32:32-p272:64:64-i64:64-i128:128-f80:128-n8:16:32:64-S128"
target triple = "x86_64-pc-linux-gnu"

%"class.ue2::depth" = type { i32 }
%"class.ue2::flat_set" = type { %"class.ue2::flat_detail::flat_base" }
%"class.ue2::flat_detail::flat_base" = type { %"class.std::tuple.140" }
%"class.std::tuple.140" = type { %"struct.std::_Tuple_impl.141" }
%"struct.std::_Tuple_impl.141" = type { %"struct.std::_Head_base.144" }
%"struct.std::_Head_base.144" = type { %"class.boost::container::small_vector" }
%"class.boost::container::small_vector" = type { %"class.boost::container::small_vector_base.base", [4 x i8] }
%"class.boost::container::small_vector_base.base" = type <{ %"class.boost::container::vector", %"union.boost::move_detail::aligned_struct_wrapper" }>
%"class.boost::container::vector" = type { %"struct.boost::container::vector_alloc_holder" }
%"struct.boost::container::vector_alloc_holder" = type { ptr, i64, i64 }
%"union.boost::move_detail::aligned_struct_wrapper" = type { %"struct.boost::move_detail::aligned_struct" }
%"struct.boost::move_detail::aligned_struct" = type { [4 x i8] }
%"struct.ue2::LeftEngInfo" = type { %"class.std::shared_ptr", %"class.std::shared_ptr.149", %"class.std::shared_ptr.152", %"class.std::shared_ptr.155", %"class.std::shared_ptr.158", i32, i32, %"class.ue2::depth", %"class.ue2::depth" }
%"class.std::shared_ptr" = type { %"class.std::__shared_ptr" }
%"class.std::__shared_ptr" = type { ptr, %"class.std::__shared_count" }
%"class.std::__shared_count" = type { ptr }
%"class.std::shared_ptr.149" = type { %"class.std::__shared_ptr.150" }
%"class.std::__shared_ptr.150" = type { ptr, %"class.std::__shared_count" }
%"class.std::shared_ptr.152" = type { %"class.std::__shared_ptr.153" }
%"class.std::__shared_ptr.153" = type { ptr, %"class.std::__shared_count" }
%"class.std::shared_ptr.155" = type { %"class.std::__shared_ptr.156" }
%"class.std::__shared_ptr.156" = type { ptr, %"class.std::__shared_count" }
%"class.std::shared_ptr.158" = type { %"class.std::__shared_ptr.159" }
%"class.std::__shared_ptr.159" = type { ptr, %"class.std::__shared_count" }
%"struct.ue2::(anonymous namespace)::DupeLeafKey" = type <{ %"class.ue2::flat_set", %"class.ue2::flat_set", i8, [7 x i8], %"struct.ue2::suffix_id", %"struct.ue2::LeftEngInfo", i32, [4 x i8] }>
%"struct.ue2::suffix_id" = type { ptr, ptr, ptr, ptr, ptr, %"class.ue2::depth", %"class.ue2::depth" }
%"class.boost::container::small_vector_base" = type <{ %"class.boost::container::vector", %"union.boost::move_detail::aligned_struct_wrapper", [4 x i8] }>
%"struct.boost::move_detail::addr_impl_ref.453" = type { ptr }

; Function Attrs: inlinehint mustprogress nounwind uwtable
define linkonce_odr hidden noundef ptr @_ZN5boost11move_detail14addressof_implIKhE1fERS2_l(ptr noundef nonnull align 1 dereferenceable(1) %0, i64 noundef %1) #4 comdat align 2 {
  %3 = alloca ptr, align 8
  %4 = alloca i64, align 8
  store ptr %0, ptr %3, align 8
  store i64 %1, ptr %4, align 8
  %5 = load ptr, ptr %3, align 8
  ret ptr %5
}

; Function Attrs: inlinehint mustprogress nounwind uwtable
define linkonce_odr hidden noundef nonnull align 1 dereferenceable(1) ptr @_ZNK5boost11move_detail13addr_impl_refIKhEcvRS2_Ev(ptr noundef nonnull align 8 dereferenceable(8) %0) #4 comdat align 2 {
  %2 = alloca ptr, align 8
  store ptr %0, ptr %2, align 8
  %3 = load ptr, ptr %2, align 8
  %4 = getelementptr inbounds nuw %"struct.boost::move_detail::addr_impl_ref.453", ptr %3, i32 0, i32 0
  %5 = load ptr, ptr %4, align 8
  ret ptr %5
}

; Function Attrs: inlinehint mustprogress nounwind uwtable
define linkonce_odr hidden void @_ZN5boost11move_detail13addr_impl_refIKhEC2ERS2_(ptr noundef nonnull align 8 dereferenceable(8) %0, ptr noundef nonnull align 1 dereferenceable(1) %1) unnamed_addr #4 comdat align 2 {
  %3 = alloca ptr, align 8
  %4 = alloca ptr, align 8
  store ptr %0, ptr %3, align 8
  store ptr %1, ptr %4, align 8
  %5 = load ptr, ptr %3, align 8
  %6 = getelementptr inbounds nuw %"struct.boost::move_detail::addr_impl_ref.453", ptr %5, i32 0, i32 0
  %7 = load ptr, ptr %4, align 8
  store ptr %7, ptr %6, align 8
  ret void
}

; Function Attrs: inlinehint mustprogress uwtable
define linkonce_odr hidden noundef ptr @_ZN5boost11move_detail9addressofIKhEEPT_RS3_(ptr noundef nonnull align 1 dereferenceable(1) %0) #7 comdat {
  %2 = alloca ptr, align 8
  %3 = alloca %"struct.boost::move_detail::addr_impl_ref.453", align 8
  store ptr %0, ptr %2, align 8
  call void @llvm.lifetime.start.p0(i64 8, ptr %3) #24
  %4 = load ptr, ptr %2, align 8
  call void @_ZN5boost11move_detail13addr_impl_refIKhEC2ERS2_(ptr noundef nonnull align 8 dereferenceable(8) %3, ptr noundef nonnull align 1 dereferenceable(1) %4)
  %5 = call noundef nonnull align 1 dereferenceable(1) ptr @_ZNK5boost11move_detail13addr_impl_refIKhEcvRS2_Ev(ptr noundef nonnull align 8 dereferenceable(8) %3)
  %6 = call noundef ptr @_ZN5boost11move_detail14addressof_implIKhE1fERS2_l(ptr noundef nonnull align 1 dereferenceable(1) %5, i64 noundef 0)
  call void @llvm.lifetime.end.p0(i64 8, ptr %3) #24
  ret ptr %6
}

; Function Attrs: inlinehint mustprogress nounwind uwtable
define linkonce_odr hidden noundef ptr @_ZN5boost9intrusive14pointer_traitsIPKjE16static_cast_fromIKvEES3_PT_(ptr noundef %0) #4 comdat align 2 {
  %2 = alloca ptr, align 8
  store ptr %0, ptr %2, align 8
  %3 = load ptr, ptr %2, align 8
  ret ptr %3
}

; Function Attrs: inlinehint mustprogress uwtable
define linkonce_odr hidden noundef ptr @_ZN5boost9intrusive14pointer_traitsIPKhE10pointer_toERS2_(ptr noundef nonnull align 1 dereferenceable(1) %0) #7 comdat align 2 {
  %2 = alloca ptr, align 8
  store ptr %0, ptr %2, align 8
  %3 = load ptr, ptr %2, align 8
  %4 = call noundef ptr @_ZN5boost11move_detail9addressofIKhEEPT_RS3_(ptr noundef nonnull align 1 dereferenceable(1) %3)
  ret ptr %4
}

; Function Attrs: inlinehint mustprogress nounwind uwtable
define linkonce_odr hidden noundef ptr @_ZNK5boost9container17small_vector_baseIjSaIjEvE16internal_storageEv(ptr noundef nonnull align 8 dereferenceable(28) %0) #4 comdat align 2 personality ptr @__gxx_personality_v0 {
  %2 = alloca ptr, align 8
  %3 = alloca ptr, align 8
  store ptr %0, ptr %2, align 8
  %4 = load ptr, ptr %2, align 8
  call void @llvm.lifetime.start.p0(i64 8, ptr %3) #24
  %5 = getelementptr inbounds nuw %"class.boost::container::small_vector_base", ptr %4, i32 0, i32 1
  %6 = getelementptr inbounds [4 x i8], ptr %5, i64 0, i64 0
  %7 = invoke noundef ptr @_ZN5boost9intrusive14pointer_traitsIPKhE10pointer_toERS2_(ptr noundef nonnull align 1 dereferenceable(1) %6)
          to label %8 unwind label %12

8:                                                ; preds = %1
  store ptr %7, ptr %3, align 8
  %9 = load ptr, ptr %3, align 8
  %10 = invoke noundef ptr @_ZN5boost9intrusive14pointer_traitsIPKjE16static_cast_fromIKvEES3_PT_(ptr noundef %9)
          to label %11 unwind label %12

11:                                               ; preds = %8
  call void @llvm.lifetime.end.p0(i64 8, ptr %3) #24
  ret ptr %10

12:                                               ; preds = %8, %1
  %13 = landingpad { ptr, i32 }
          catch ptr null
  %14 = extractvalue { ptr, i32 } %13, 0
  call void @__clang_call_terminate(ptr %14) #25
  unreachable
}

; Function Attrs: mustprogress nounwind uwtable
define linkonce_odr dso_local void @_ZNSt15__new_allocatorIjE10deallocateEPjm(ptr noundef nonnull align 1 dereferenceable(1) %0, ptr noundef %1, i64 noundef %2) #1 comdat align 2 {
  %4 = alloca ptr, align 8
  %5 = alloca ptr, align 8
  %6 = alloca i64, align 8
  store ptr %0, ptr %4, align 8
  store ptr %1, ptr %5, align 8
  store i64 %2, ptr %6, align 8
  %7 = load ptr, ptr %5, align 8
  call void @_ZdlPv(ptr noundef %7) #29
  ret void
}

; Function Attrs: inlinehint mustprogress nounwind uwtable
define linkonce_odr hidden noundef ptr @_ZNK5boost9container22small_vector_allocatorIjSaIvEvE16internal_storageEv(ptr noundef nonnull align 1 dereferenceable(1) %0) #4 comdat align 2 {
  %2 = alloca ptr, align 8
  %3 = alloca ptr, align 8
  %4 = alloca ptr, align 8
  %5 = alloca ptr, align 8
  store ptr %0, ptr %2, align 8
  %6 = load ptr, ptr %2, align 8
  call void @llvm.lifetime.start.p0(i64 8, ptr %3) #24
  store ptr %6, ptr %3, align 8
  call void @llvm.lifetime.start.p0(i64 8, ptr %4) #24
  %7 = load ptr, ptr %3, align 8
  store ptr %7, ptr %4, align 8
  call void @llvm.lifetime.start.p0(i64 8, ptr %5) #24
  %8 = load ptr, ptr %4, align 8
  store ptr %8, ptr %5, align 8
  %9 = load ptr, ptr %5, align 8
  %10 = call noundef ptr @_ZNK5boost9container17small_vector_baseIjSaIjEvE16internal_storageEv(ptr noundef nonnull align 8 dereferenceable(28) %9) #24
  call void @llvm.lifetime.end.p0(i64 8, ptr %5) #24
  call void @llvm.lifetime.end.p0(i64 8, ptr %4) #24
  call void @llvm.lifetime.end.p0(i64 8, ptr %3) #24
  ret ptr %10
}

; Function Attrs: inlinehint mustprogress uwtable
define linkonce_odr hidden void @_ZN5boost9container16allocator_traitsISaIjEE10deallocateERS2_Pjm(ptr noundef nonnull align 1 dereferenceable(1) %0, ptr noundef %1, i64 noundef %2) #7 comdat align 2 {
  %4 = alloca ptr, align 8
  %5 = alloca ptr, align 8
  %6 = alloca i64, align 8
  store ptr %0, ptr %4, align 8
  store ptr %1, ptr %5, align 8
  store i64 %2, ptr %6, align 8
  %7 = load ptr, ptr %4, align 8
  %8 = load ptr, ptr %5, align 8
  %9 = load i64, ptr %6, align 8
  call void @_ZNSt15__new_allocatorIjE10deallocateEPjm(ptr noundef nonnull align 1 dereferenceable(1) %7, ptr noundef %8, i64 noundef %9)
  ret void
}

; Function Attrs: inlinehint mustprogress nounwind uwtable
define linkonce_odr hidden noundef nonnull align 1 dereferenceable(1) ptr @_ZN5boost9container22small_vector_allocatorIjSaIvEvE7as_baseEv(ptr noundef nonnull align 1 dereferenceable(1) %0) #4 comdat align 2 {
  %2 = alloca ptr, align 8
  store ptr %0, ptr %2, align 8
  %3 = load ptr, ptr %2, align 8
  ret ptr %3
}

; Function Attrs: inlinehint mustprogress uwtable
define linkonce_odr hidden noundef zeroext i1 @_ZNK5boost9container22small_vector_allocatorIjSaIvEvE19is_internal_storageEPKj(ptr noundef nonnull align 1 dereferenceable(1) %0, ptr noundef %1) #7 comdat align 2 {
  %3 = alloca ptr, align 8
  %4 = alloca ptr, align 8
  store ptr %0, ptr %3, align 8
  store ptr %1, ptr %4, align 8
  %5 = load ptr, ptr %3, align 8
  %6 = call noundef ptr @_ZNK5boost9container22small_vector_allocatorIjSaIvEvE16internal_storageEv(ptr noundef nonnull align 1 dereferenceable(1) %5)
  %7 = load ptr, ptr %4, align 8
  %8 = icmp eq ptr %6, %7
  ret i1 %8
}

; Function Attrs: mustprogress nounwind uwtable
define linkonce_odr hidden void @_ZN5boost9container22small_vector_allocatorIjSaIvEvE10deallocateEPjm(ptr noundef nonnull align 1 dereferenceable(1) %0, ptr noundef %1, i64 noundef %2) #1 comdat align 2 personality ptr @__gxx_personality_v0 {
  %4 = alloca ptr, align 8
  %5 = alloca ptr, align 8
  %6 = alloca i64, align 8
  store ptr %0, ptr %4, align 8
  store ptr %1, ptr %5, align 8
  store i64 %2, ptr %6, align 8
  %7 = load ptr, ptr %4, align 8
  %8 = load ptr, ptr %5, align 8
  %9 = invoke noundef zeroext i1 @_ZNK5boost9container22small_vector_allocatorIjSaIvEvE19is_internal_storageEPKj(ptr noundef nonnull align 1 dereferenceable(1) %7, ptr noundef %8)
          to label %10 unwind label %17

10:                                               ; preds = %3
  br i1 %9, label %16, label %11

11:                                               ; preds = %10
  %12 = call noundef nonnull align 1 dereferenceable(1) ptr @_ZN5boost9container22small_vector_allocatorIjSaIvEvE7as_baseEv(ptr noundef nonnull align 1 dereferenceable(1) %7) #24
  %13 = load ptr, ptr %5, align 8
  %14 = load i64, ptr %6, align 8
  invoke void @_ZN5boost9container16allocator_traitsISaIjEE10deallocateERS2_Pjm(ptr noundef nonnull align 1 dereferenceable(1) %12, ptr noundef %13, i64 noundef %14)
          to label %15 unwind label %17

15:                                               ; preds = %11
  br label %16

16:                                               ; preds = %15, %10
  ret void

17:                                               ; preds = %11, %3
  %18 = landingpad { ptr, i32 }
          catch ptr null
  %19 = extractvalue { ptr, i32 } %18, 0
  call void @__clang_call_terminate(ptr %19) #25
  unreachable
}

; Function Attrs: inlinehint mustprogress nounwind uwtable
define linkonce_odr hidden void @_ZN5boost9container16allocator_traitsINS0_22small_vector_allocatorIjSaIvEvEEE10deallocateERS4_Pjm(ptr noundef nonnull align 1 dereferenceable(1) %0, ptr noundef %1, i64 noundef %2) #4 comdat align 2 {
  %4 = alloca ptr, align 8
  %5 = alloca ptr, align 8
  %6 = alloca i64, align 8
  store ptr %0, ptr %4, align 8
  store ptr %1, ptr %5, align 8
  store i64 %2, ptr %6, align 8
  %7 = load ptr, ptr %4, align 8
  %8 = load ptr, ptr %5, align 8
  %9 = load i64, ptr %6, align 8
  call void @_ZN5boost9container22small_vector_allocatorIjSaIvEvE10deallocateEPjm(ptr noundef nonnull align 1 dereferenceable(1) %7, ptr noundef %8, i64 noundef %9) #24
  ret void
}

; Function Attrs: mustprogress nounwind uwtable
define linkonce_odr dso_local void @_ZNSt15__new_allocatorIjED2Ev(ptr noundef nonnull align 1 dereferenceable(1) %0) unnamed_addr #1 comdat align 2 {
  %2 = alloca ptr, align 8
  store ptr %0, ptr %2, align 8
  ret void
}

; Function Attrs: inlinehint mustprogress uwtable
define linkonce_odr hidden void @_ZN5boost9container19vector_alloc_holderINS0_22small_vector_allocatorIjSaIvEvEEmNS_11move_detail17integral_constantIjLj1EEEE10deallocateERKPjm(ptr noundef nonnull align 8 dereferenceable(24) %0, ptr noundef nonnull align 8 dereferenceable(8) %1, i64 noundef %2) #7 comdat align 2 {
  %4 = alloca ptr, align 8
  %5 = alloca ptr, align 8
  %6 = alloca i64, align 8
  store ptr %0, ptr %4, align 8
  store ptr %1, ptr %5, align 8
  store i64 %2, ptr %6, align 8
  %7 = load ptr, ptr %4, align 8
  %8 = call noundef nonnull align 1 dereferenceable(1) ptr @_ZN5boost9container19vector_alloc_holderINS0_22small_vector_allocatorIjSaIvEvEEmNS_11move_detail17integral_constantIjLj1EEEE5allocEv(ptr noundef nonnull align 8 dereferenceable(24) %7) #24
  %9 = load ptr, ptr %5, align 8
  %10 = load ptr, ptr %9, align 8
  %11 = load i64, ptr %6, align 8
  call void @_ZN5boost9container16allocator_traitsINS0_22small_vector_allocatorIjSaIvEvEEE10deallocateERS4_Pjm(ptr noundef nonnull align 1 dereferenceable(1) %8, ptr noundef %10, i64 noundef %11)
  ret void
}

; Function Attrs: inlinehint mustprogress nounwind uwtable
define linkonce_odr hidden noundef ptr @_ZN5boost7movelib14to_raw_pointerIjEEPT_S3_(ptr noundef %0) #4 comdat {
  %2 = alloca ptr, align 8
  store ptr %0, ptr %2, align 8
  %3 = load ptr, ptr %2, align 8
  ret ptr %3
}

; Function Attrs: inlinehint mustprogress nounwind uwtable
define linkonce_odr hidden noundef nonnull align 8 dereferenceable(8) ptr @_ZNK5boost9container19vector_alloc_holderINS0_22small_vector_allocatorIjSaIvEvEEmNS_11move_detail17integral_constantIjLj1EEEE5startEv(ptr noundef nonnull align 8 dereferenceable(24) %0) #4 comdat align 2 {
  %2 = alloca ptr, align 8
  store ptr %0, ptr %2, align 8
  %3 = load ptr, ptr %2, align 8
  %4 = getelementptr inbounds nuw %"struct.boost::container::vector_alloc_holder", ptr %3, i32 0, i32 0
  ret ptr %4
}

; Function Attrs: inlinehint mustprogress nounwind uwtable
define linkonce_odr hidden noundef nonnull align 1 dereferenceable(1) ptr @_ZN5boost9container19vector_alloc_holderINS0_22small_vector_allocatorIjSaIvEvEEmNS_11move_detail17integral_constantIjLj1EEEE5allocEv(ptr noundef nonnull align 8 dereferenceable(24) %0) #4 comdat align 2 {
  %2 = alloca ptr, align 8
  store ptr %0, ptr %2, align 8
  %3 = load ptr, ptr %2, align 8
  ret ptr %3
}

; Function Attrs: noinline noreturn nounwind uwtable
define linkonce_odr hidden void @__clang_call_terminate(ptr noundef %0) #9 comdat {
  %2 = call ptr @__cxa_begin_catch(ptr %0) #24
  call void @_ZSt9terminatev() #25
  unreachable
}

; Function Attrs: inlinehint mustprogress nounwind uwtable
define linkonce_odr hidden void @_ZN5boost9container19vector_alloc_holderINS0_22small_vector_allocatorIjSaIvEvEEmNS_11move_detail17integral_constantIjLj1EEEED2Ev(ptr noundef nonnull align 8 dereferenceable(24) %0) unnamed_addr #4 comdat align 2 personality ptr @__gxx_personality_v0 {
  %2 = alloca ptr, align 8
  store ptr %0, ptr %2, align 8
  %3 = load ptr, ptr %2, align 8
  %4 = getelementptr inbounds nuw %"struct.boost::container::vector_alloc_holder", ptr %3, i32 0, i32 2
  %5 = load i64, ptr %4, align 8
  %6 = icmp ne i64 %5, 0
  br i1 %6, label %7, label %12

7:                                                ; preds = %1
  %8 = getelementptr inbounds nuw %"struct.boost::container::vector_alloc_holder", ptr %3, i32 0, i32 0
  %9 = getelementptr inbounds nuw %"struct.boost::container::vector_alloc_holder", ptr %3, i32 0, i32 2
  %10 = load i64, ptr %9, align 8
  invoke void @_ZN5boost9container19vector_alloc_holderINS0_22small_vector_allocatorIjSaIvEvEEmNS_11move_detail17integral_constantIjLj1EEEE10deallocateERKPjm(ptr noundef nonnull align 8 dereferenceable(24) %3, ptr noundef nonnull align 8 dereferenceable(8) %8, i64 noundef %10)
          to label %11 unwind label %13

11:                                               ; preds = %7
  br label %12

12:                                               ; preds = %11, %1
  call void @_ZNSt15__new_allocatorIjED2Ev(ptr noundef nonnull align 1 dereferenceable(1) %3) #24
  ret void

13:                                               ; preds = %7
  %14 = landingpad { ptr, i32 }
          catch ptr null
  %15 = extractvalue { ptr, i32 } %14, 0
  call void @__clang_call_terminate(ptr %15) #25
  unreachable
}

; Function Attrs: inlinehint mustprogress nounwind uwtable
define linkonce_odr hidden void @_ZN5boost9container15destroy_alloc_nINS0_22small_vector_allocatorIjSaIvEvEEPjmEENS0_3dtl32enable_if_trivially_destructibleIT0_vE4typeERT_S8_T1_(ptr noundef nonnull align 1 dereferenceable(1) %0, ptr noundef %1, i64 noundef %2) #4 comdat {
  %4 = alloca ptr, align 8
  %5 = alloca ptr, align 8
  %6 = alloca i64, align 8
  store ptr %0, ptr %4, align 8
  store ptr %1, ptr %5, align 8
  store i64 %2, ptr %6, align 8
  ret void
}

; Function Attrs: inlinehint mustprogress uwtable
define linkonce_odr hidden noundef ptr @_ZNK5boost9container6vectorIjNS0_22small_vector_allocatorIjSaIvEvEEvE14priv_raw_beginEv(ptr noundef nonnull align 8 dereferenceable(24) %0) #7 comdat align 2 {
  %2 = alloca ptr, align 8
  store ptr %0, ptr %2, align 8
  %3 = load ptr, ptr %2, align 8
  %4 = getelementptr inbounds nuw %"class.boost::container::vector", ptr %3, i32 0, i32 0
  %5 = call noundef nonnull align 8 dereferenceable(8) ptr @_ZNK5boost9container19vector_alloc_holderINS0_22small_vector_allocatorIjSaIvEvEEmNS_11move_detail17integral_constantIjLj1EEEE5startEv(ptr noundef nonnull align 8 dereferenceable(24) %4) #24
  %6 = load ptr, ptr %5, align 8
  %7 = call noundef ptr @_ZN5boost7movelib14to_raw_pointerIjEEPT_S3_(ptr noundef %6)
  ret ptr %7
}

; Function Attrs: inlinehint mustprogress nounwind uwtable
define linkonce_odr hidden noundef nonnull align 1 dereferenceable(1) ptr @_ZN5boost9container6vectorIjNS0_22small_vector_allocatorIjSaIvEvEEvE20get_stored_allocatorEv(ptr noundef nonnull align 8 dereferenceable(24) %0) #4 comdat align 2 {
  %2 = alloca ptr, align 8
  store ptr %0, ptr %2, align 8
  %3 = load ptr, ptr %2, align 8
  %4 = getelementptr inbounds nuw %"class.boost::container::vector", ptr %3, i32 0, i32 0
  %5 = call noundef nonnull align 1 dereferenceable(1) ptr @_ZN5boost9container19vector_alloc_holderINS0_22small_vector_allocatorIjSaIvEvEEmNS_11move_detail17integral_constantIjLj1EEEE5allocEv(ptr noundef nonnull align 8 dereferenceable(24) %4) #24
  ret ptr %5
}

; Function Attrs: mustprogress nounwind uwtable
define linkonce_odr hidden void @_ZN5boost9container6vectorIjNS0_22small_vector_allocatorIjSaIvEvEEvED2Ev(ptr noundef nonnull align 8 dereferenceable(24) %0) unnamed_addr #1 comdat align 2 personality ptr @__gxx_personality_v0 {
  %2 = alloca ptr, align 8
  store ptr %0, ptr %2, align 8
  %3 = load ptr, ptr %2, align 8
  %4 = call noundef nonnull align 1 dereferenceable(1) ptr @_ZN5boost9container6vectorIjNS0_22small_vector_allocatorIjSaIvEvEEvE20get_stored_allocatorEv(ptr noundef nonnull align 8 dereferenceable(24) %3) #24
  %5 = invoke noundef ptr @_ZNK5boost9container6vectorIjNS0_22small_vector_allocatorIjSaIvEvEEvE14priv_raw_beginEv(ptr noundef nonnull align 8 dereferenceable(24) %3)
          to label %6 unwind label %11

6:                                                ; preds = %1
  %7 = getelementptr inbounds nuw %"class.boost::container::vector", ptr %3, i32 0, i32 0
  %8 = getelementptr inbounds nuw %"struct.boost::container::vector_alloc_holder", ptr %7, i32 0, i32 1
  %9 = load i64, ptr %8, align 8
  call void @_ZN5boost9container15destroy_alloc_nINS0_22small_vector_allocatorIjSaIvEvEEPjmEENS0_3dtl32enable_if_trivially_destructibleIT0_vE4typeERT_S8_T1_(ptr noundef nonnull align 1 dereferenceable(1) %4, ptr noundef %5, i64 noundef %9)
  %10 = getelementptr inbounds nuw %"class.boost::container::vector", ptr %3, i32 0, i32 0
  call void @_ZN5boost9container19vector_alloc_holderINS0_22small_vector_allocatorIjSaIvEvEEmNS_11move_detail17integral_constantIjLj1EEEED2Ev(ptr noundef nonnull align 8 dereferenceable(24) %10) #24
  ret void

11:                                               ; preds = %1
  %12 = landingpad { ptr, i32 }
          catch ptr null
  %13 = extractvalue { ptr, i32 } %12, 0
  call void @__clang_call_terminate(ptr %13) #25
  unreachable
}

; Function Attrs: inlinehint mustprogress nounwind uwtable
define linkonce_odr hidden void @_ZNSt10_Head_baseILm0EN5boost9container12small_vectorIjLm1ESaIjEvEELb0EED2Ev(ptr noundef nonnull align 8 dereferenceable(32) %0) unnamed_addr #4 comdat align 2 {
  %2 = alloca ptr, align 8
  store ptr %0, ptr %2, align 8
  %3 = load ptr, ptr %2, align 8
  %4 = getelementptr inbounds nuw %"struct.std::_Head_base.144", ptr %3, i32 0, i32 0
  call void @_ZN5boost9container6vectorIjNS0_22small_vector_allocatorIjSaIvEvEEvED2Ev(ptr noundef nonnull align 8 dereferenceable(28) %4) #24
  ret void
}

; Function Attrs: inlinehint mustprogress nounwind uwtable
define linkonce_odr hidden void @_ZN3ue211flat_detail9flat_baseIjSt4lessIjESaIjEED2Ev(ptr noundef nonnull align 8 dereferenceable(32) %0) unnamed_addr #4 comdat align 2 {
  %2 = alloca ptr, align 8
  store ptr %0, ptr %2, align 8
  %3 = load ptr, ptr %2, align 8
  %4 = getelementptr inbounds nuw %"class.ue2::flat_detail::flat_base", ptr %3, i32 0, i32 0
  call void @_ZNSt10_Head_baseILm0EN5boost9container12small_vectorIjLm1ESaIjEvEELb0EED2Ev(ptr noundef nonnull align 8 dereferenceable(32) %4) #24
  ret void
}

; Function Attrs: inlinehint mustprogress nounwind uwtable
define internal void @_ZN3ue212_GLOBAL__N_111DupeLeafKeyD2Ev(ptr noundef nonnull align 8 dereferenceable(220) %0) unnamed_addr #4 align 2 {
  %2 = alloca ptr, align 8
  store ptr %0, ptr %2, align 8
  %3 = load ptr, ptr %2, align 8
  %4 = getelementptr inbounds nuw %"struct.ue2::(anonymous namespace)::DupeLeafKey", ptr %3, i32 0, i32 5
  call void @_ZN3ue211LeftEngInfoD2Ev(ptr noundef nonnull align 8 dereferenceable(96) %4) #24
  %5 = getelementptr inbounds nuw %"struct.ue2::(anonymous namespace)::DupeLeafKey", ptr %3, i32 0, i32 1
  call void @_ZN3ue211flat_detail9flat_baseIjSt4lessIjESaIjEED2Ev(ptr noundef nonnull align 8 dereferenceable(32) %5) #24
  %6 = getelementptr inbounds nuw %"struct.ue2::(anonymous namespace)::DupeLeafKey", ptr %3, i32 0, i32 0
  call void @_ZN3ue211flat_detail9flat_baseIjSt4lessIjESaIjEED2Ev(ptr noundef nonnull align 8 dereferenceable(32) %6) #24
  ret void
}